target datalayout = "e-m:e-p270:32:32-p271:32:32-p272:64:64-i64:64-i128:128-f80:128-n8:16:32:64-S128"
target triple = "x86_64-pc-linux-gnu"

@.str.22 = private unnamed_addr constant [32 x i8] c"%s removes a PostgreSQL role.\0A\0A\00", align 1
@.str.23 = private unnamed_addr constant [8 x i8] c"Usage:\0A\00", align 1
@.str.24 = private unnamed_addr constant [29 x i8] c"  %s [OPTION]... [ROLENAME]\0A\00", align 1
@.str.25 = private unnamed_addr constant [11 x i8] c"\0AOptions:\0A\00", align 1
@.str.26 = private unnamed_addr constant [72 x i8] c"  -e, --echo                show the commands being sent to the server\0A\00", align 1
@.str.27 = private unnamed_addr constant [132 x i8] c"  -i, --interactive         prompt before deleting anything, and prompt for\0A                            role name if not specified\0A\00", align 1
@.str.28 = private unnamed_addr constant [67 x i8] c"  -V, --version             output version information, then exit\0A\00", align 1
@.str.29 = private unnamed_addr constant [70 x i8] c"  --if-exists               don't report error if user doesn't exist\0A\00", align 1
@.str.30 = private unnamed_addr constant [55 x i8] c"  -?, --help                show this help, then exit\0A\00", align 1
@.str.31 = private unnamed_addr constant [22 x i8] c"\0AConnection options:\0A\00", align 1
@.str.32 = private unnamed_addr constant [70 x i8] c"  -h, --host=HOSTNAME       database server host or socket directory\0A\00", align 1
@.str.33 = private unnamed_addr constant [50 x i8] c"  -p, --port=PORT           database server port\0A\00", align 1
@.str.34 = private unnamed_addr constant [75 x i8] c"  -U, --username=USERNAME   user name to connect as (not the one to drop)\0A\00", align 1
@.str.35 = private unnamed_addr constant [55 x i8] c"  -w, --no-password         never prompt for password\0A\00", align 1
@.str.36 = private unnamed_addr constant [51 x i8] c"  -W, --password            force password prompt\0A\00", align 1
@.str.37 = private unnamed_addr constant [23 x i8] c"\0AReport bugs to <%s>.\0A\00", align 1
@.str.38 = private unnamed_addr constant [32 x i8] c"pgsql-bugs@lists.postgresql.org\00", align 1
@.str.39 = private unnamed_addr constant [20 x i8] c"%s home page: <%s>\0A\00", align 1
@.str.40 = private unnamed_addr constant [11 x i8] c"PostgreSQL\00", align 1
@.str.41 = private unnamed_addr constant [28 x i8] c"https://www.postgresql.org/\00", align 1

; Function Attrs: nounwind uwtable
define internal void @help(ptr noundef %0) #0 {
  %2 = alloca ptr, align 8
  store ptr %0, ptr %2, align 8
  %3 = load ptr, ptr %2, align 8
  %4 = call i32 (ptr, ...) @pg_printf(ptr noundef @.str.22, ptr noundef %3)
  %5 = call i32 (ptr, ...) @pg_printf(ptr noundef @.str.23)
  %6 = load ptr, ptr %2, align 8
  %7 = call i32 (ptr, ...) @pg_printf(ptr noundef @.str.24, ptr noundef %6)
  %8 = call i32 (ptr, ...) @pg_printf(ptr noundef @.str.25)
  %9 = call i32 (ptr, ...) @pg_printf(ptr noundef @.str.26)
  %10 = call i32 (ptr, ...) @pg_printf(ptr noundef @.str.27)
  %11 = call i32 (ptr, ...) @pg_printf(ptr noundef @.str.28)
  %12 = call i32 (ptr, ...) @pg_printf(ptr noundef @.str.29)
  %13 = call i32 (ptr, ...) @pg_printf(ptr noundef @.str.30)
  %14 = call i32 (ptr, ...) @pg_printf(ptr noundef @.str.31)
  %15 = call i32 (ptr, ...) @pg_printf(ptr noundef @.str.32)
  %16 = call i32 (ptr, ...) @pg_printf(ptr noundef @.str.33)
  %17 = call i32 (ptr, ...) @pg_printf(ptr noundef @.str.34)
  %18 = call i32 (ptr, ...) @pg_printf(ptr noundef @.str.35)
  %19 = call i32 (ptr, ...) @pg_printf(ptr noundef @.str.36)
  %20 = call i32 (ptr, ...) @pg_printf(ptr noundef @.str.37, ptr noundef @.str.38)
  %21 = call i32 (ptr, ...) @pg_printf(ptr noundef @.str.39, ptr noundef @.str.40, ptr noundef @.str.41)
  ret void
}