; Function Attrs: nounwind uwtable
define internal void @help(ptr noundef %0) #3 {
  %2 = tail call i32 (ptr, ...) @pg_printf(ptr noundef nonnull @.str.22, ptr noundef %0) #6
  %3 = tail call i32 (ptr, ...) @pg_printf(ptr noundef nonnull @.str.23) #6
  %4 = tail call i32 (ptr, ...) @pg_printf(ptr noundef nonnull @.str.24, ptr noundef %0) #6
  %5 = tail call i32 (ptr, ...) @pg_printf(ptr noundef nonnull @.str.25) #6
  %6 = tail call i32 (ptr, ...) @pg_printf(ptr noundef nonnull @.str.26) #6
  %7 = tail call i32 (ptr, ...) @pg_printf(ptr noundef nonnull @.str.27) #6
  %8 = tail call i32 (ptr, ...) @pg_printf(ptr noundef nonnull @.str.28) #6
  %9 = tail call i32 (ptr, ...) @pg_printf(ptr noundef nonnull @.str.29) #6
  %10 = tail call i32 (ptr, ...) @pg_printf(ptr noundef nonnull @.str.30) #6
  %11 = tail call i32 (ptr, ...) @pg_printf(ptr noundef nonnull @.str.31) #6
  %12 = tail call i32 (ptr, ...) @pg_printf(ptr noundef nonnull @.str.32) #6
  %13 = tail call i32 (ptr, ...) @pg_printf(ptr noundef nonnull @.str.33) #6
  %14 = tail call i32 (ptr, ...) @pg_printf(ptr noundef nonnull @.str.34) #6
  %15 = tail call i32 (ptr, ...) @pg_printf(ptr noundef nonnull @.str.35) #6
  %16 = tail call i32 (ptr, ...) @pg_printf(ptr noundef nonnull @.str.36) #6
  %17 = tail call i32 (ptr, ...) @pg_printf(ptr noundef nonnull @.str.37, ptr noundef nonnull @.str.38) #6
  %18 = tail call i32 (ptr, ...) @pg_printf(ptr noundef nonnull @.str.39, ptr noundef nonnull @.str.40, ptr noundef nonnull @.str.41) #6
  ret void
}